target datalayout = "e-m:e-p270:32:32-p271:32:32-p272:64:64-i64:64-i128:128-f80:128-n8:16:32:64-S128"
target triple = "x86_64-pc-linux-gnu"

; Function Attrs: nounwind uwtable
define internal ptr @common_load(ptr noundef %0, i64 noundef %1, i32 noundef %2) #0 {
  %4 = alloca ptr, align 8
  %5 = alloca ptr, align 8
  %6 = alloca i64, align 8
  %7 = alloca i32, align 4
  %8 = alloca ptr, align 8
  %9 = alloca i32, align 4
  store ptr %0, ptr %5, align 8, !tbaa !3
  store i64 %1, ptr %6, align 8, !tbaa !32
  store i32 %2, ptr %7, align 4, !tbaa !11
  call void @llvm.lifetime.start.p0(i64 8, ptr %8) #6
  store ptr null, ptr %8, align 8, !tbaa !9
  %10 = call i32 @ossl_prov_is_running()
  %11 = icmp ne i32 %10, 0
  br i1 %11, label %12, label %26

12:                                               ; preds = %3
  %13 = load i64, ptr %6, align 8, !tbaa !32
  %14 = icmp eq i64 %13, 8
  br i1 %14, label %15, label %26

15:                                               ; preds = %12
  %16 = load ptr, ptr %5, align 8, !tbaa !3
  %17 = load ptr, ptr %16, align 8, !tbaa !9
  store ptr %17, ptr %8, align 8, !tbaa !9
  %18 = load ptr, ptr %8, align 8, !tbaa !9
  %19 = call i32 @RSA_test_flags(ptr noundef %18, i32 noundef 61440)
  %20 = load i32, ptr %7, align 4, !tbaa !11
  %21 = icmp ne i32 %19, %20
  br i1 %21, label %22, label %23

22:                                               ; preds = %15
  store ptr null, ptr %4, align 8
  store i32 1, ptr %9, align 4
  br label %27

23:                                               ; preds = %15
  %24 = load ptr, ptr %5, align 8, !tbaa !3
  store ptr null, ptr %24, align 8, !tbaa !9
  %25 = load ptr, ptr %8, align 8, !tbaa !9
  store ptr %25, ptr %4, align 8
  store i32 1, ptr %9, align 4
  br label %27

26:                                               ; preds = %12, %3
  store ptr null, ptr %4, align 8
  store i32 1, ptr %9, align 4
  br label %27

27:                                               ; preds = %26, %23, %22
  call void @llvm.lifetime.end.p0(i64 8, ptr %8) #6
  %28 = load ptr, ptr %4, align 8
  ret ptr %28
}

; Function Attrs: nounwind uwtable
define internal ptr @rsa_load(ptr noundef %0, i64 noundef %1) #0 {
  %3 = alloca ptr, align 8
  %4 = alloca i64, align 8
  store ptr %0, ptr %3, align 8, !tbaa !3
  store i64 %1, ptr %4, align 8, !tbaa !32
  %5 = load ptr, ptr %3, align 8, !tbaa !3
  %6 = load i64, ptr %4, align 8, !tbaa !32
  %7 = call ptr @common_load(ptr noundef %5, i64 noundef %6, i32 noundef 0)
  ret ptr %7
}