; Function Attrs: nounwind uwtable
define internal noundef ptr @rsa_load(ptr noundef captures(none) %0, i64 noundef %1) #0 {
  %3 = tail call i32 @ossl_prov_is_running() #6
  %4 = icmp ne i32 %3, 0
  %5 = icmp eq i64 %1, 8
  %or.cond.i = and i1 %5, %4
  br i1 %or.cond.i, label %6, label %common_load.exit

6:                                                ; preds = %2
  %7 = load ptr, ptr %0, align 8, !tbaa !23
  %8 = tail call i32 @RSA_test_flags(ptr noundef %7, i32 noundef 61440) #6
  %.not.i = icmp eq i32 %8, 0
  br i1 %.not.i, label %9, label %common_load.exit

9:                                                ; preds = %6
  store ptr null, ptr %0, align 8, !tbaa !23
  br label %common_load.exit

common_load.exit:                                 ; preds = %2, %6, %9
  %.0.i = phi ptr [ %7, %9 ], [ null, %6 ], [ null, %2 ]
  ret ptr %.0.i
}